; ModuleID = '32/1789.c'
source_filename = "32/1789.c"
target datalayout = "e-m:e-p270:32:32-p271:32:32-p272:64:64-i64:64-f80:128-n8:16:32:64-S128"
target triple = "x86_64-pc-linux-gnu"

@.str = private unnamed_addr constant [3 x i8] c"%d\00", align 1
@.str.1 = private unnamed_addr constant [3 x i8] c"%s\00", align 1
@.str.2 = private unnamed_addr constant [3 x i8] c"%c\00", align 1
@.str.3 = private unnamed_addr constant [2 x i8] c"\0A\00", align 1

; Function Attrs: noinline nounwind uwtable
define dso_local void @main() #0 {
  %1 = alloca i32, align 4
  %2 = alloca [101 x i8], align 16
  %3 = alloca [101 x i8], align 16
  %4 = alloca [101 x i8], align 16
  %5 = alloca i32, align 4
  %6 = alloca i32, align 4
  %7 = alloca i32, align 4
  %8 = alloca i32, align 4
  %9 = alloca i32, align 4
  %10 = alloca i32, align 4
  %11 = call i32 (i8*, ...) @__isoc99_scanf(i8* getelementptr inbounds ([3 x i8], [3 x i8]* @.str, i64 0, i64 0), i32* %1)
  br label %12

12:                                               ; preds = %134, %0
  %13 = load i32, i32* %1, align 4
  %14 = add nsw i32 %13, -1
  store i32 %14, i32* %1, align 4
  %15 = icmp sgt i32 %13, 0
  br i1 %15, label %16, label %136

16:                                               ; preds = %12
  %17 = call i32 @getchar()
  %18 = getelementptr inbounds [101 x i8], [101 x i8]* %2, i64 0, i64 0
  %19 = call i32 (i8*, ...) @__isoc99_scanf(i8* getelementptr inbounds ([3 x i8], [3 x i8]* @.str.1, i64 0, i64 0), i8* %18)
  %20 = getelementptr inbounds [101 x i8], [101 x i8]* %3, i64 0, i64 0
  %21 = call i32 (i8*, ...) @__isoc99_scanf(i8* getelementptr inbounds ([3 x i8], [3 x i8]* @.str.1, i64 0, i64 0), i8* %20)
  %22 = getelementptr inbounds [101 x i8], [101 x i8]* %2, i64 0, i64 0
  %23 = call i64 @strlen(i8* %22) #3
  %24 = trunc i64 %23 to i32
  store i32 %24, i32* %5, align 4
  %25 = getelementptr inbounds [101 x i8], [101 x i8]* %3, i64 0, i64 0
  %26 = call i64 @strlen(i8* %25) #3
  %27 = trunc i64 %26 to i32
  store i32 %27, i32* %6, align 4
  %28 = load i32, i32* %5, align 4
  %29 = sub nsw i32 %28, 1
  store i32 %29, i32* %7, align 4
  %30 = load i32, i32* %5, align 4
  %31 = sub nsw i32 %30, 1
  store i32 %31, i32* %8, align 4
  %32 = load i32, i32* %7, align 4
  store i32 %32, i32* %9, align 4
  %33 = load i32, i32* %6, align 4
  %34 = sub nsw i32 %33, 1
  store i32 %34, i32* %10, align 4
  br label %35

35:                                               ; preds = %57, %16
  %36 = load i32, i32* %10, align 4
  %37 = icmp sge i32 %36, 0
  br i1 %37, label %38, label %60

38:                                               ; preds = %35
  %39 = load i32, i32* %8, align 4
  %40 = add nsw i32 %39, -1
  store i32 %40, i32* %8, align 4
  %41 = sext i32 %39 to i64
  %42 = getelementptr inbounds [101 x i8], [101 x i8]* %2, i64 0, i64 %41
  %43 = load i8, i8* %42, align 1
  %44 = sext i8 %43 to i32
  %45 = load i32, i32* %10, align 4
  %46 = sext i32 %45 to i64
  %47 = getelementptr inbounds [101 x i8], [101 x i8]* %3, i64 0, i64 %46
  %48 = load i8, i8* %47, align 1
  %49 = sext i8 %48 to i32
  %50 = sub nsw i32 %44, %49
  %51 = add nsw i32 %50, 48
  %52 = trunc i32 %51 to i8
  %53 = load i32, i32* %9, align 4
  %54 = add nsw i32 %53, -1
  store i32 %54, i32* %9, align 4
  %55 = sext i32 %53 to i64
  %56 = getelementptr inbounds [101 x i8], [101 x i8]* %4, i64 0, i64 %55
  store i8 %52, i8* %56, align 1
  br label %57

57:                                               ; preds = %38
  %58 = load i32, i32* %10, align 4
  %59 = add nsw i32 %58, -1
  store i32 %59, i32* %10, align 4
  br label %35

60:                                               ; preds = %35
  br label %61

61:                                               ; preds = %64, %60
  %62 = load i32, i32* %8, align 4
  %63 = icmp sge i32 %62, 0
  br i1 %63, label %64, label %74

64:                                               ; preds = %61
  %65 = load i32, i32* %8, align 4
  %66 = add nsw i32 %65, -1
  store i32 %66, i32* %8, align 4
  %67 = sext i32 %65 to i64
  %68 = getelementptr inbounds [101 x i8], [101 x i8]* %2, i64 0, i64 %67
  %69 = load i8, i8* %68, align 1
  %70 = load i32, i32* %9, align 4
  %71 = add nsw i32 %70, -1
  store i32 %71, i32* %9, align 4
  %72 = sext i32 %70 to i64
  %73 = getelementptr inbounds [101 x i8], [101 x i8]* %4, i64 0, i64 %72
  store i8 %69, i8* %73, align 1
  br label %61

74:                                               ; preds = %61
  %75 = load i32, i32* %7, align 4
  store i32 %75, i32* %9, align 4
  br label %76

76:                                               ; preds = %101, %74
  %77 = load i32, i32* %9, align 4
  %78 = icmp sgt i32 %77, 0
  br i1 %78, label %79, label %104

79:                                               ; preds = %76
  %80 = load i32, i32* %9, align 4
  %81 = sext i32 %80 to i64
  %82 = getelementptr inbounds [101 x i8], [101 x i8]* %4, i64 0, i64 %81
  %83 = load i8, i8* %82, align 1
  %84 = sext i8 %83 to i32
  %85 = icmp slt i32 %84, 48
  br i1 %85, label %86, label %100

86:                                               ; preds = %79
  %87 = load i32, i32* %9, align 4
  %88 = sext i32 %87 to i64
  %89 = getelementptr inbounds [101 x i8], [101 x i8]* %4, i64 0, i64 %88
  %90 = load i8, i8* %89, align 1
  %91 = sext i8 %90 to i32
  %92 = add nsw i32 %91, 10
  %93 = trunc i32 %92 to i8
  store i8 %93, i8* %89, align 1
  %94 = load i32, i32* %9, align 4
  %95 = sub nsw i32 %94, 1
  %96 = sext i32 %95 to i64
  %97 = getelementptr inbounds [101 x i8], [101 x i8]* %4, i64 0, i64 %96
  %98 = load i8, i8* %97, align 1
  %99 = add i8 %98, -1
  store i8 %99, i8* %97, align 1
  br label %100

100:                                              ; preds = %86, %79
  br label %101

101:                                              ; preds = %100
  %102 = load i32, i32* %9, align 4
  %103 = add nsw i32 %102, -1
  store i32 %103, i32* %9, align 4
  br label %76

104:                                              ; preds = %76
  store i32 0, i32* %9, align 4
  br label %105

105:                                              ; preds = %118, %104
  %106 = load i32, i32* %9, align 4
  %107 = load i32, i32* %7, align 4
  %108 = icmp slt i32 %106, %107
  br i1 %108, label %109, label %121

109:                                              ; preds = %105
  %110 = load i32, i32* %9, align 4
  %111 = sext i32 %110 to i64
  %112 = getelementptr inbounds [101 x i8], [101 x i8]* %4, i64 0, i64 %111
  %113 = load i8, i8* %112, align 1
  %114 = sext i8 %113 to i32
  %115 = icmp ne i32 %114, 48
  br i1 %115, label %116, label %117

116:                                              ; preds = %109
  br label %121

117:                                              ; preds = %109
  br label %118

118:                                              ; preds = %117
  %119 = load i32, i32* %9, align 4
  %120 = add nsw i32 %119, 1
  store i32 %120, i32* %9, align 4
  br label %105

121:                                              ; preds = %116, %105
  br label %122

122:                                              ; preds = %126, %121
  %123 = load i32, i32* %9, align 4
  %124 = load i32, i32* %7, align 4
  %125 = icmp sle i32 %123, %124
  br i1 %125, label %126, label %134

126:                                              ; preds = %122
  %127 = load i32, i32* %9, align 4
  %128 = add nsw i32 %127, 1
  store i32 %128, i32* %9, align 4
  %129 = sext i32 %127 to i64
  %130 = getelementptr inbounds [101 x i8], [101 x i8]* %4, i64 0, i64 %129
  %131 = load i8, i8* %130, align 1
  %132 = sext i8 %131 to i32
  %133 = call i32 (i8*, ...) @printf(i8* getelementptr inbounds ([3 x i8], [3 x i8]* @.str.2, i64 0, i64 0), i32 %132)
  br label %122

134:                                              ; preds = %122
  %135 = call i32 (i8*, ...) @printf(i8* getelementptr inbounds ([2 x i8], [2 x i8]* @.str.3, i64 0, i64 0))
  br label %12

136:                                              ; preds = %12
  ret void
}

declare dso_local i32 @__isoc99_scanf(i8*, ...) #1

declare dso_local i32 @getchar() #1

; Function Attrs: nounwind readonly
declare dso_local i64 @strlen(i8*) #2

declare dso_local i32 @printf(i8*, ...) #1


!llvm.module.flags = !{!0}
!llvm.ident = !{!1}

!0 = !{i32 1, !"wchar_size", i32 4}
!1 = !{!"clang version 10.0.0-4ubuntu1 "}
